target datalayout = "e-m:e-p270:32:32-p271:32:32-p272:64:64-i64:64-i128:128-f80:128-n8:16:32:64-S128"
target triple = "x86_64-pc-linux-gnu"

%struct.pem2der_ctx_st = type { ptr }

@.str = private unnamed_addr constant [68 x i8] c"../openssl/providers/implementations/encode_decode/decode_pem2der.c\00", align 1

; Function Attrs: nounwind uwtable
define internal ptr @pem2der_newctx(ptr noundef %0) #0 {
  %2 = alloca ptr, align 8
  %3 = alloca ptr, align 8
  store ptr %0, ptr %2, align 8, !tbaa !3
  call void @llvm.lifetime.start.p0(i64 8, ptr %3) #5
  %4 = call noalias ptr @CRYPTO_zalloc(i64 noundef 8, ptr noundef @.str, i32 noundef 59)
  store ptr %4, ptr %3, align 8, !tbaa !7
  %5 = load ptr, ptr %3, align 8, !tbaa !7
  %6 = icmp ne ptr %5, null
  br i1 %6, label %7, label %11

7:                                                ; preds = %1
  %8 = load ptr, ptr %2, align 8, !tbaa !3
  %9 = load ptr, ptr %3, align 8, !tbaa !7
  %10 = getelementptr inbounds nuw %struct.pem2der_ctx_st, ptr %9, i32 0, i32 0
  store ptr %8, ptr %10, align 8, !tbaa !9
  br label %11

11:                                               ; preds = %7, %1
  %12 = load ptr, ptr %3, align 8, !tbaa !7
  call void @llvm.lifetime.end.p0(i64 8, ptr %3) #5
  ret ptr %12
}